target datalayout = "e-m:e-p270:32:32-p271:32:32-p272:64:64-i64:64-i128:128-f80:128-n8:16:32:64-S128"
target triple = "x86_64-pc-linux-gnu"

%struct.nstime_t = type { i64 }
%struct.hpa_central_s = type { %struct.malloc_mutex_s, %struct.malloc_mutex_s, ptr, i64, ptr, i64, %struct.hpa_hooks_s }
%struct.malloc_mutex_s = type { %union.anon }
%union.anon = type { %struct.anon }
%struct.anon = type { %struct.mutex_prof_data_t, %union.pthread_mutex_t, %struct.atomic_b_t }
%struct.mutex_prof_data_t = type { %struct.nstime_t, %struct.nstime_t, i64, i64, i32, %struct.atomic_u32_t, i64, ptr, i64 }
%struct.atomic_u32_t = type { i32 }
%union.pthread_mutex_t = type { %struct.__pthread_mutex_s }
%struct.__pthread_mutex_s = type { i32, i32, i32, i32, i32, i16, i16, %struct.__pthread_internal_list }
%struct.__pthread_internal_list = type { ptr, ptr }
%struct.atomic_b_t = type { i8 }
%struct.hpa_hooks_s = type { ptr, ptr, ptr, ptr, ptr, ptr, ptr }

@.str = private unnamed_addr constant [17 x i8] c"hpa_central_grow\00", align 1
@.str.1 = private unnamed_addr constant [12 x i8] c"hpa_central\00", align 1

; Function Attrs: nounwind uwtable
define hidden zeroext i1 @je_hpa_central_init(ptr noundef %0, ptr noundef %1, ptr noundef %2) #0 {
  %4 = alloca i1, align 1
  %5 = alloca ptr, align 8
  %6 = alloca ptr, align 8
  %7 = alloca ptr, align 8
  %8 = alloca i8, align 1
  %9 = alloca i32, align 4
  store ptr %0, ptr %5, align 8, !tbaa !4
  store ptr %1, ptr %6, align 8, !tbaa !9
  store ptr %2, ptr %7, align 8, !tbaa !11
  br label %10

10:                                               ; preds = %3
  br label %11

11:                                               ; preds = %10
  call void @llvm.lifetime.start.p0(i64 1, ptr %8) #7
  %12 = load ptr, ptr %5, align 8, !tbaa !4
  %13 = getelementptr inbounds nuw %struct.hpa_central_s, ptr %12, i32 0, i32 1
  %14 = call zeroext i1 @je_malloc_mutex_init(ptr noundef %13, ptr noundef @.str, i32 noundef 19, i32 noundef 0)
  %15 = zext i1 %14 to i8
  store i8 %15, ptr %8, align 1, !tbaa !13
  %16 = load i8, ptr %8, align 1, !tbaa !13, !range !15, !noundef !16
  %17 = trunc i8 %16 to i1
  br i1 %17, label %18, label %19

18:                                               ; preds = %11
  store i1 true, ptr %4, align 1
  store i32 1, ptr %9, align 4
  br label %40

19:                                               ; preds = %11
  %20 = load ptr, ptr %5, align 8, !tbaa !4
  %21 = getelementptr inbounds nuw %struct.hpa_central_s, ptr %20, i32 0, i32 0
  %22 = call zeroext i1 @je_malloc_mutex_init(ptr noundef %21, ptr noundef @.str.1, i32 noundef 20, i32 noundef 0)
  %23 = zext i1 %22 to i8
  store i8 %23, ptr %8, align 1, !tbaa !13
  %24 = load i8, ptr %8, align 1, !tbaa !13, !range !15, !noundef !16
  %25 = trunc i8 %24 to i1
  br i1 %25, label %26, label %27

26:                                               ; preds = %19
  store i1 true, ptr %4, align 1
  store i32 1, ptr %9, align 4
  br label %40

27:                                               ; preds = %19
  %28 = load ptr, ptr %6, align 8, !tbaa !9
  %29 = load ptr, ptr %5, align 8, !tbaa !4
  %30 = getelementptr inbounds nuw %struct.hpa_central_s, ptr %29, i32 0, i32 4
  store ptr %28, ptr %30, align 8, !tbaa !17
  %31 = load ptr, ptr %5, align 8, !tbaa !4
  %32 = getelementptr inbounds nuw %struct.hpa_central_s, ptr %31, i32 0, i32 2
  store ptr null, ptr %32, align 8, !tbaa !22
  %33 = load ptr, ptr %5, align 8, !tbaa !4
  %34 = getelementptr inbounds nuw %struct.hpa_central_s, ptr %33, i32 0, i32 3
  store i64 0, ptr %34, align 8, !tbaa !23
  %35 = load ptr, ptr %5, align 8, !tbaa !4
  %36 = getelementptr inbounds nuw %struct.hpa_central_s, ptr %35, i32 0, i32 5
  store i64 0, ptr %36, align 8, !tbaa !24
  %37 = load ptr, ptr %5, align 8, !tbaa !4
  %38 = getelementptr inbounds nuw %struct.hpa_central_s, ptr %37, i32 0, i32 6
  %39 = load ptr, ptr %7, align 8, !tbaa !11
  call void @llvm.memcpy.p0.p0.i64(ptr align 8 %38, ptr align 8 %39, i64 56, i1 false), !tbaa.struct !25
  store i1 false, ptr %4, align 1
  store i32 1, ptr %9, align 4
  br label %40

40:                                               ; preds = %27, %26, %18
  call void @llvm.lifetime.end.p0(i64 1, ptr %8) #7
  %41 = load i1, ptr %4, align 1
  ret i1 %41
}