; Function Attrs: nounwind uwtable
define hidden noundef zeroext i1 @je_hpa_central_init(ptr noundef %0, ptr noundef %1, ptr noundef readonly captures(none) %2) local_unnamed_addr #1 {
  %4 = getelementptr inbounds nuw i8, ptr %0, i64 112
  %5 = tail call zeroext i1 @je_malloc_mutex_init(ptr noundef nonnull %4, ptr noundef nonnull @.str, i32 noundef 19, i32 noundef 0) #8
  br i1 %5, label %13, label %6

6:                                                ; preds = %3
  %7 = tail call zeroext i1 @je_malloc_mutex_init(ptr noundef nonnull %0, ptr noundef nonnull @.str.1, i32 noundef 20, i32 noundef 0) #8
  br i1 %7, label %13, label %8

8:                                                ; preds = %6
  %9 = getelementptr inbounds nuw i8, ptr %0, i64 240
  store ptr %1, ptr %9, align 8, !tbaa !4
  %10 = getelementptr inbounds nuw i8, ptr %0, i64 224
  %11 = getelementptr inbounds nuw i8, ptr %0, i64 248
  store i64 0, ptr %11, align 8, !tbaa !13
  %12 = getelementptr inbounds nuw i8, ptr %0, i64 256
  tail call void @llvm.memset.p0.i64(ptr noundef nonnull align 8 dereferenceable(16) %10, i8 0, i64 16, i1 false)
  tail call void @llvm.memcpy.p0.p0.i64(ptr noundef nonnull align 8 dereferenceable(56) %12, ptr noundef nonnull align 8 dereferenceable(56) %2, i64 56, i1 false), !tbaa.struct !14
  br label %13

13:                                               ; preds = %6, %3, %8
  %.0 = phi i1 [ false, %8 ], [ true, %3 ], [ true, %6 ]
  ret i1 %.0
}